target datalayout = "e-m:e-p270:32:32-p271:32:32-p272:64:64-i64:64-i128:128-f80:128-n8:16:32:64-S128"
target triple = "x86_64-pc-linux-gnu"

; Function Attrs: nounwind uwtable
define i32 @Abc_NtkRetimeMinDelay(ptr noundef %0, ptr noundef %1, i32 noundef %2, i32 noundef %3, i32 noundef %4, i32 noundef %5) #0 {
  %7 = alloca i32, align 4
  %8 = alloca ptr, align 8
  %9 = alloca ptr, align 8
  %10 = alloca i32, align 4
  %11 = alloca i32, align 4
  %12 = alloca i32, align 4
  %13 = alloca i32, align 4
  %14 = alloca i32, align 4
  %15 = alloca i32, align 4
  %16 = alloca i32, align 4
  %17 = alloca i32, align 4
  %18 = alloca i32, align 4
  store ptr %0, ptr %8, align 8, !tbaa !3
  store ptr %1, ptr %9, align 8, !tbaa !3
  store i32 %2, ptr %10, align 4, !tbaa !8
  store i32 %3, ptr %11, align 4, !tbaa !8
  store i32 %4, ptr %12, align 4, !tbaa !8
  store i32 %5, ptr %13, align 4, !tbaa !8
  call void @llvm.lifetime.start.p0(i64 4, ptr %14) #7
  call void @llvm.lifetime.start.p0(i64 4, ptr %15) #7
  call void @llvm.lifetime.start.p0(i64 4, ptr %16) #7
  call void @llvm.lifetime.start.p0(i64 4, ptr %17) #7
  %19 = load ptr, ptr %9, align 8, !tbaa !3
  %20 = load i32, ptr %10, align 4, !tbaa !8
  %21 = load i32, ptr %12, align 4, !tbaa !8
  %22 = load i32, ptr %11, align 4, !tbaa !8
  %23 = load i32, ptr %13, align 4, !tbaa !8
  %24 = call i32 @Abc_NtkRetimeMinDelayTry(ptr noundef %19, i32 noundef %20, i32 noundef %21, i32 noundef 0, i32 noundef %22, ptr noundef %14, i32 noundef %23)
  store i32 %24, ptr %15, align 4, !tbaa !8
  %25 = load i32, ptr %14, align 4, !tbaa !8
  %26 = icmp eq i32 %25, 0
  br i1 %26, label %27, label %28

27:                                               ; preds = %6
  store i32 1, ptr %7, align 4
  store i32 1, ptr %18, align 4
  br label %35

28:                                               ; preds = %6
  %29 = load ptr, ptr %8, align 8, !tbaa !3
  %30 = load i32, ptr %10, align 4, !tbaa !8
  %31 = load i32, ptr %12, align 4, !tbaa !8
  %32 = load i32, ptr %14, align 4, !tbaa !8
  %33 = load i32, ptr %13, align 4, !tbaa !8
  %34 = call i32 @Abc_NtkRetimeMinDelayTry(ptr noundef %29, i32 noundef %30, i32 noundef %31, i32 noundef 1, i32 noundef %32, ptr noundef %16, i32 noundef %33)
  store i32 %34, ptr %17, align 4, !tbaa !8
  store i32 1, ptr %7, align 4
  store i32 1, ptr %18, align 4
  br label %35

35:                                               ; preds = %28, %27
  call void @llvm.lifetime.end.p0(i64 4, ptr %17) #7
  call void @llvm.lifetime.end.p0(i64 4, ptr %16) #7
  call void @llvm.lifetime.end.p0(i64 4, ptr %15) #7
  call void @llvm.lifetime.end.p0(i64 4, ptr %14) #7
  %36 = load i32, ptr %7, align 4
  ret i32 %36
}