; Function Attrs: nounwind uwtable
define noundef i32 @Abc_NtkRetimeMinDelay(ptr noundef %0, ptr noundef %1, i32 noundef %2, i32 noundef %3, i32 noundef %4, i32 noundef %5) local_unnamed_addr #0 {
  %7 = alloca i32, align 4
  %8 = alloca i32, align 4
  call void @llvm.lifetime.start.p0(i64 4, ptr nonnull %7) #11
  call void @llvm.lifetime.start.p0(i64 4, ptr nonnull %8) #11
  call fastcc void @Abc_NtkRetimeMinDelayTry(ptr noundef %1, i32 noundef %2, i32 noundef %4, i32 noundef 0, i32 noundef %3, ptr noundef %7, i32 noundef %5)
  %9 = load i32, ptr %7, align 4, !tbaa !3
  %10 = icmp eq i32 %9, 0
  br i1 %10, label %12, label %11

11:                                               ; preds = %6
  call fastcc void @Abc_NtkRetimeMinDelayTry(ptr noundef %0, i32 noundef %2, i32 noundef %4, i32 noundef 1, i32 noundef %9, ptr noundef %8, i32 noundef %5)
  br label %12

12:                                               ; preds = %6, %11
  call void @llvm.lifetime.end.p0(i64 4, ptr nonnull %8) #11
  call void @llvm.lifetime.end.p0(i64 4, ptr nonnull %7) #11
  ret i32 1
}